target datalayout = "e-m:e-p270:32:32-p271:32:32-p272:64:64-i64:64-i128:128-f80:128-n8:16:32:64-S128"
target triple = "x86_64-pc-linux-gnu"

; Function Attrs: nounwind uwtable
define hidden ptr @_cmsChain2Lab(ptr noundef %0, i32 noundef %1, i32 noundef %2, i32 noundef %3, ptr noundef %4, ptr noundef %5, ptr noundef %6, ptr noundef %7, i32 noundef %8) #0 {
  %10 = alloca ptr, align 8
  %11 = alloca ptr, align 8
  %12 = alloca i32, align 4
  %13 = alloca i32, align 4
  %14 = alloca i32, align 4
  %15 = alloca ptr, align 8
  %16 = alloca ptr, align 8
  %17 = alloca ptr, align 8
  %18 = alloca ptr, align 8
  %19 = alloca i32, align 4
  %20 = alloca ptr, align 8
  %21 = alloca ptr, align 8
  %22 = alloca [256 x ptr], align 16
  %23 = alloca [256 x i32], align 16
  %24 = alloca [256 x double], align 16
  %25 = alloca [256 x i32], align 16
  %26 = alloca i32, align 4
  store ptr %0, ptr %11, align 8
  store i32 %1, ptr %12, align 4
  store i32 %2, ptr %13, align 4
  store i32 %3, ptr %14, align 4
  store ptr %4, ptr %15, align 8
  store ptr %5, ptr %16, align 8
  store ptr %6, ptr %17, align 8
  store ptr %7, ptr %18, align 8
  store i32 %8, ptr %19, align 4
  %27 = load i32, ptr %12, align 4
  %28 = icmp ugt i32 %27, 254
  br i1 %28, label %29, label %30

29:                                               ; preds = %9
  store ptr null, ptr %10, align 8
  br label %105

30:                                               ; preds = %9
  %31 = load ptr, ptr %11, align 8
  %32 = call ptr @cmsCreateLab4ProfileTHR(ptr noundef %31, ptr noundef null)
  store ptr %32, ptr %21, align 8
  %33 = load ptr, ptr %21, align 8
  %34 = icmp eq ptr %33, null
  br i1 %34, label %35, label %36

35:                                               ; preds = %30
  store ptr null, ptr %10, align 8
  br label %105

36:                                               ; preds = %30
  store i32 0, ptr %26, align 4
  br label %37

37:                                               ; preds = %74, %36
  %38 = load i32, ptr %26, align 4
  %39 = load i32, ptr %12, align 4
  %40 = icmp ult i32 %38, %39
  br i1 %40, label %41, label %77

41:                                               ; preds = %37
  %42 = load ptr, ptr %16, align 8
  %43 = load i32, ptr %26, align 4
  %44 = zext i32 %43 to i64
  %45 = getelementptr inbounds ptr, ptr %42, i64 %44
  %46 = load ptr, ptr %45, align 8
  %47 = load i32, ptr %26, align 4
  %48 = zext i32 %47 to i64
  %49 = getelementptr inbounds [256 x ptr], ptr %22, i64 0, i64 %48
  store ptr %46, ptr %49, align 8
  %50 = load ptr, ptr %17, align 8
  %51 = load i32, ptr %26, align 4
  %52 = zext i32 %51 to i64
  %53 = getelementptr inbounds i32, ptr %50, i64 %52
  %54 = load i32, ptr %53, align 4
  %55 = load i32, ptr %26, align 4
  %56 = zext i32 %55 to i64
  %57 = getelementptr inbounds [256 x i32], ptr %23, i64 0, i64 %56
  store i32 %54, ptr %57, align 4
  %58 = load ptr, ptr %18, align 8
  %59 = load i32, ptr %26, align 4
  %60 = zext i32 %59 to i64
  %61 = getelementptr inbounds double, ptr %58, i64 %60
  %62 = load double, ptr %61, align 8
  %63 = load i32, ptr %26, align 4
  %64 = zext i32 %63 to i64
  %65 = getelementptr inbounds [256 x double], ptr %24, i64 0, i64 %64
  store double %62, ptr %65, align 8
  %66 = load ptr, ptr %15, align 8
  %67 = load i32, ptr %26, align 4
  %68 = zext i32 %67 to i64
  %69 = getelementptr inbounds i32, ptr %66, i64 %68
  %70 = load i32, ptr %69, align 4
  %71 = load i32, ptr %26, align 4
  %72 = zext i32 %71 to i64
  %73 = getelementptr inbounds [256 x i32], ptr %25, i64 0, i64 %72
  store i32 %70, ptr %73, align 4
  br label %74

74:                                               ; preds = %41
  %75 = load i32, ptr %26, align 4
  %76 = add i32 %75, 1
  store i32 %76, ptr %26, align 4
  br label %37, !llvm.loop !6

77:                                               ; preds = %37
  %78 = load ptr, ptr %21, align 8
  %79 = load i32, ptr %12, align 4
  %80 = zext i32 %79 to i64
  %81 = getelementptr inbounds [256 x ptr], ptr %22, i64 0, i64 %80
  store ptr %78, ptr %81, align 8
  %82 = load i32, ptr %12, align 4
  %83 = zext i32 %82 to i64
  %84 = getelementptr inbounds [256 x i32], ptr %23, i64 0, i64 %83
  store i32 0, ptr %84, align 4
  %85 = load i32, ptr %12, align 4
  %86 = zext i32 %85 to i64
  %87 = getelementptr inbounds [256 x double], ptr %24, i64 0, i64 %86
  store double 1.000000e+00, ptr %87, align 8
  %88 = load i32, ptr %12, align 4
  %89 = zext i32 %88 to i64
  %90 = getelementptr inbounds [256 x i32], ptr %25, i64 0, i64 %89
  store i32 1, ptr %90, align 4
  %91 = load ptr, ptr %11, align 8
  %92 = load i32, ptr %12, align 4
  %93 = add i32 %92, 1
  %94 = getelementptr inbounds [256 x ptr], ptr %22, i64 0, i64 0
  %95 = getelementptr inbounds [256 x i32], ptr %23, i64 0, i64 0
  %96 = getelementptr inbounds [256 x i32], ptr %25, i64 0, i64 0
  %97 = getelementptr inbounds [256 x double], ptr %24, i64 0, i64 0
  %98 = load i32, ptr %13, align 4
  %99 = load i32, ptr %14, align 4
  %100 = load i32, ptr %19, align 4
  %101 = call ptr @cmsCreateExtendedTransform(ptr noundef %91, i32 noundef %93, ptr noundef %94, ptr noundef %95, ptr noundef %96, ptr noundef %97, ptr noundef null, i32 noundef 0, i32 noundef %98, i32 noundef %99, i32 noundef %100)
  store ptr %101, ptr %20, align 8
  %102 = load ptr, ptr %21, align 8
  %103 = call i32 @cmsCloseProfile(ptr noundef %102)
  %104 = load ptr, ptr %20, align 8
  store ptr %104, ptr %10, align 8
  br label %105

105:                                              ; preds = %77, %35, %29
  %106 = load ptr, ptr %10, align 8
  ret ptr %106
}