; Function Attrs: nounwind uwtable
define hidden ptr @_cmsChain2Lab(ptr noundef %0, i32 noundef %1, i32 noundef %2, i32 noundef %3, ptr nocapture noundef readonly %4, ptr nocapture noundef readonly %5, ptr nocapture noundef readonly %6, ptr nocapture noundef readonly %7, i32 noundef %8) local_unnamed_addr #0 {
  %10 = alloca [256 x ptr], align 16
  %11 = alloca [256 x i32], align 16
  %12 = alloca [256 x double], align 16
  %13 = alloca [256 x i32], align 16
  %14 = icmp ugt i32 %1, 254
  br i1 %14, label %28, label %15

15:                                               ; preds = %9
  %16 = tail call ptr @cmsCreateLab4ProfileTHR(ptr noundef %0, ptr noundef null) #6
  %17 = icmp eq ptr %16, null
  br i1 %17, label %28, label %.preheader

.preheader:                                       ; preds = %15
  %.not = icmp eq i32 %1, 0
  br i1 %.not, label %._crit_edge, label %.lr.ph.preheader

.lr.ph.preheader:                                 ; preds = %.preheader
  %18 = zext nneg i32 %1 to i64
  %19 = shl nuw nsw i64 %18, 3
  call void @llvm.memcpy.p0.p0.i64(ptr nonnull align 16 %10, ptr align 8 %5, i64 %19, i1 false)
  %20 = shl nuw nsw i64 %18, 2
  call void @llvm.memcpy.p0.p0.i64(ptr nonnull align 16 %11, ptr align 4 %6, i64 %20, i1 false)
  call void @llvm.memcpy.p0.p0.i64(ptr nonnull align 16 %12, ptr align 8 %7, i64 %19, i1 false)
  call void @llvm.memcpy.p0.p0.i64(ptr nonnull align 16 %13, ptr align 4 %4, i64 %20, i1 false)
  br label %._crit_edge

._crit_edge:                                      ; preds = %.preheader, %.lr.ph.preheader
  %.pre-phi = phi i64 [ %18, %.lr.ph.preheader ], [ 0, %.preheader ]
  %21 = getelementptr inbounds [256 x ptr], ptr %10, i64 0, i64 %.pre-phi
  store ptr %16, ptr %21, align 8
  %22 = getelementptr inbounds [256 x i32], ptr %11, i64 0, i64 %.pre-phi
  store i32 0, ptr %22, align 4
  %23 = getelementptr inbounds [256 x double], ptr %12, i64 0, i64 %.pre-phi
  store double 1.000000e+00, ptr %23, align 8
  %24 = getelementptr inbounds [256 x i32], ptr %13, i64 0, i64 %.pre-phi
  store i32 1, ptr %24, align 4
  %25 = add nuw nsw i32 %1, 1
  %26 = call ptr @cmsCreateExtendedTransform(ptr noundef %0, i32 noundef %25, ptr noundef nonnull %10, ptr noundef nonnull %11, ptr noundef nonnull %13, ptr noundef nonnull %12, ptr noundef null, i32 noundef 0, i32 noundef %2, i32 noundef %3, i32 noundef %8) #6
  %27 = call i32 @cmsCloseProfile(ptr noundef nonnull %16) #6
  br label %28

28:                                               ; preds = %15, %9, %._crit_edge
  %.030 = phi ptr [ %26, %._crit_edge ], [ null, %9 ], [ null, %15 ]
  ret ptr %.030
}